target datalayout = "e-m:e-p270:32:32-p271:32:32-p272:64:64-i64:64-i128:128-f80:128-n8:16:32:64-S128"
target triple = "x86_64-pc-linux-gnu"

%struct.lxb_html_tree = type { ptr, ptr, ptr, ptr, ptr, ptr, ptr, %struct.lxb_html_tree_pending_table_t, ptr, i8, i8, i8, i8, i8, i8, ptr, ptr, ptr, i32, i64 }
%struct.lxb_html_tree_pending_table_t = type { ptr, i8 }
%struct.lxb_dom_node = type { %struct.lxb_dom_event_target, i64, i64, i64, ptr, ptr, ptr, ptr, ptr, ptr, ptr, i32, i64 }
%struct.lxb_dom_event_target = type { ptr }
%struct.lexbor_array_t = type { ptr, i64, i64 }

; Function Attrs: nounwind uwtable
define internal zeroext i1 @lxb_html_tag_is_category(i64 noundef %0, i64 noundef %1, i32 noundef %2) #0 {
  %4 = alloca i1, align 1
  %5 = alloca i64, align 8
  %6 = alloca i64, align 8
  %7 = alloca i32, align 4
  store i64 %0, ptr %5, align 8
  store i64 %1, ptr %6, align 8
  store i32 %2, ptr %7, align 4
  %8 = load i64, ptr %5, align 8
  %9 = icmp ult i64 %8, 196
  br i1 %9, label %10, label %22

10:                                               ; preds = %3
  %11 = load i64, ptr %6, align 8
  %12 = icmp ult i64 %11, 8
  br i1 %12, label %13, label %22

13:                                               ; preds = %10
  %14 = load i64, ptr %5, align 8
  %15 = getelementptr inbounds [196 x [8 x i32]], ptr @lxb_html_tag_res_cats, i64 0, i64 %14
  %16 = load i64, ptr %6, align 8
  %17 = getelementptr inbounds [8 x i32], ptr %15, i64 0, i64 %16
  %18 = load i32, ptr %17, align 4
  %19 = load i32, ptr %7, align 4
  %20 = and i32 %18, %19
  %21 = icmp ne i32 %20, 0
  store i1 %21, ptr %4, align 1
  br label %26

22:                                               ; preds = %10, %3
  %23 = load i32, ptr %7, align 4
  %24 = and i32 129, %23
  %25 = icmp ne i32 %24, 0
  store i1 %25, ptr %4, align 1
  br label %26

26:                                               ; preds = %22, %13
  %27 = load i1, ptr %4, align 1
  ret i1 %27
}

; Function Attrs: nounwind uwtable
define hidden ptr @lxb_html_tree_element_in_scope_by_node(ptr noundef %0, ptr noundef %1, i32 noundef %2) #0 {
  %4 = alloca ptr, align 8
  %5 = alloca ptr, align 8
  %6 = alloca ptr, align 8
  %7 = alloca i32, align 4
  %8 = alloca ptr, align 8
  %9 = alloca i64, align 8
  %10 = alloca ptr, align 8
  store ptr %0, ptr %5, align 8
  store ptr %1, ptr %6, align 8
  store i32 %2, ptr %7, align 4
  %11 = load ptr, ptr %5, align 8
  %12 = getelementptr inbounds %struct.lxb_html_tree, ptr %11, i32 0, i32 4
  %13 = load ptr, ptr %12, align 8
  %14 = getelementptr inbounds %struct.lexbor_array_t, ptr %13, i32 0, i32 2
  %15 = load i64, ptr %14, align 8
  store i64 %15, ptr %9, align 8
  %16 = load ptr, ptr %5, align 8
  %17 = getelementptr inbounds %struct.lxb_html_tree, ptr %16, i32 0, i32 4
  %18 = load ptr, ptr %17, align 8
  %19 = getelementptr inbounds %struct.lexbor_array_t, ptr %18, i32 0, i32 0
  %20 = load ptr, ptr %19, align 8
  store ptr %20, ptr %10, align 8
  br label %21

21:                                               ; preds = %46, %3
  %22 = load i64, ptr %9, align 8
  %23 = icmp ne i64 %22, 0
  br i1 %23, label %24, label %47

24:                                               ; preds = %21
  %25 = load i64, ptr %9, align 8
  %26 = add i64 %25, -1
  store i64 %26, ptr %9, align 8
  %27 = load ptr, ptr %10, align 8
  %28 = load i64, ptr %9, align 8
  %29 = getelementptr inbounds ptr, ptr %27, i64 %28
  %30 = load ptr, ptr %29, align 8
  store ptr %30, ptr %8, align 8
  %31 = load ptr, ptr %8, align 8
  %32 = load ptr, ptr %6, align 8
  %33 = icmp eq ptr %31, %32
  br i1 %33, label %34, label %36

34:                                               ; preds = %24
  %35 = load ptr, ptr %8, align 8
  store ptr %35, ptr %4, align 8
  br label %48

36:                                               ; preds = %24
  %37 = load ptr, ptr %8, align 8
  %38 = getelementptr inbounds %struct.lxb_dom_node, ptr %37, i32 0, i32 1
  %39 = load i64, ptr %38, align 8
  %40 = load ptr, ptr %8, align 8
  %41 = getelementptr inbounds %struct.lxb_dom_node, ptr %40, i32 0, i32 3
  %42 = load i64, ptr %41, align 8
  %43 = load i32, ptr %7, align 4
  %44 = call zeroext i1 @lxb_html_tag_is_category(i64 noundef %39, i64 noundef %42, i32 noundef %43)
  br i1 %44, label %45, label %46

45:                                               ; preds = %36
  store ptr null, ptr %4, align 8
  br label %48

46:                                               ; preds = %36
  br label %21

47:                                               ; preds = %21
  store ptr null, ptr %4, align 8
  br label %48

48:                                               ; preds = %47, %45, %34
  %49 = load ptr, ptr %4, align 8
  ret ptr %49
}