; Function Attrs: nofree norecurse nosync nounwind memory(read, inaccessiblemem: none) uwtable
define hidden noundef ptr @lxb_html_tree_element_in_scope_by_node(ptr nocapture noundef readonly %0, ptr noundef readnone %1, i32 noundef %2) local_unnamed_addr #7 {
  %4 = getelementptr inbounds i8, ptr %0, i64 32
  %5 = load ptr, ptr %4, align 8
  %6 = getelementptr inbounds i8, ptr %5, i64 16
  %7 = load i64, ptr %6, align 8
  %8 = load ptr, ptr %5, align 8
  %9 = and i32 %2, 129
  br label %10

10:                                               ; preds = %lxb_html_tag_is_category.exit, %3
  %.012 = phi i64 [ %7, %3 ], [ %12, %lxb_html_tag_is_category.exit ]
  %.not = icmp eq i64 %.012, 0
  br i1 %.not, label %27, label %11

11:                                               ; preds = %10
  %12 = add i64 %.012, -1
  %13 = getelementptr inbounds ptr, ptr %8, i64 %12
  %14 = load ptr, ptr %13, align 8
  %15 = icmp eq ptr %14, %1
  br i1 %15, label %27, label %16

16:                                               ; preds = %11
  %17 = getelementptr inbounds i8, ptr %14, i64 8
  %18 = load i64, ptr %17, align 8
  %19 = getelementptr inbounds i8, ptr %14, i64 24
  %20 = load i64, ptr %19, align 8
  %21 = icmp ult i64 %18, 196
  %22 = icmp ult i64 %20, 8
  %or.cond.i = and i1 %21, %22
  br i1 %or.cond.i, label %23, label %lxb_html_tag_is_category.exit

23:                                               ; preds = %16
  %24 = getelementptr inbounds [196 x [8 x i32]], ptr @lxb_html_tag_res_cats, i64 0, i64 %18, i64 %20
  %25 = load i32, ptr %24, align 4
  %26 = and i32 %25, %2
  br label %lxb_html_tag_is_category.exit

lxb_html_tag_is_category.exit:                    ; preds = %16, %23
  %.0.in.i = phi i32 [ %26, %23 ], [ %9, %16 ]
  %.0.i.not = icmp eq i32 %.0.in.i, 0
  br i1 %.0.i.not, label %10, label %27

27:                                               ; preds = %10, %lxb_html_tag_is_category.exit, %11
  %.0 = phi ptr [ %1, %11 ], [ null, %lxb_html_tag_is_category.exit ], [ null, %10 ]
  ret ptr %.0
}